Certificate:
    Data:
        Version: 3 (0x2)
        Serial Number: 2 (0x2)
    Signature Algorithm: sha1WithRSAEncryption
        Issuer: C=CN, ST=Beijing, L=Beijing, O=Qunar, OU=qunarzz.com
        Validity
            Not Before: Apr 23 11:55:05 2014 GMT
            Not After : Apr 23 11:55:05 2015 GMT
        Subject: C=CN, ST=Beijing, O=Qunar, OU=qunarzz.com, CN=qunarzz.com
        Subject Public Key Info:
            Public Key Algorithm: rsaEncryption
                Public-Key: (2048 bit)
                Modulus:
                    00:c9:22:a5:45:e4:74:17:6b:f2:9f:0b:6f:b1:2b:
                    61:f5:e9:44:a3:2e:6b:70:b1:ad:6d:a0:92:c0:45:
                    bc:4f:ae:5e:14:5a:bf:30:77:29:e6:ae:e6:3b:10:
                    63:0f:e9:d0:d3:32:84:f5:f0:29:05:b1:c6:65:43:
                    aa:91:de:20:25:9e:06:99:88:6c:60:ac:b2:ad:d8:
                    f2:94:1a:89:cd:1b:e2:35:86:6d:6b:f4:62:2a:23:
                    d3:43:4f:9e:7c:43:3e:6f:f6:84:43:08:86:22:18:
                    d4:48:42:9e:66:a3:6b:2d:59:0f:87:f9:47:29:69:
                    b1:df:ca:74:02:1f:6f:d0:5a:72:d1:04:8f:05:57:
                    5a:34:38:bd:4e:77:07:ae:ab:e3:c0:08:fd:0d:ac:
                    cd:01:b7:44:ad:06:57:58:7b:e7:f0:65:e2:2d:b6:
                    77:fe:9e:4a:b4:dd:10:62:e4:4a:74:10:de:be:f5:
                    cc:a0:78:75:c0:58:bd:94:b5:50:12:ae:62:c8:31:
                    07:a3:0f:89:1c:49:28:16:cf:1e:e4:1e:59:cb:b5:
                    33:95:ee:77:ee:4e:26:bd:5a:9c:04:74:c7:25:41:
                    47:3a:f8:a4:7a:e4:31:66:0d:44:9b:b0:6b:37:7e:
                    f4:0d:6a:96:0a:b7:f6:e0:f7:c4:82:33:f8:01:9a:
                    1c:53
                Exponent: 65537 (0x10001)
        X509v3 extensions:
            X509v3 Basic Constraints: 
                CA:FALSE
            Netscape Comment: 
                OpenSSL Generated Certificate
            X509v3 Subject Key Identifier: 
                7A:B3:BD:E2:FD:8D:1C:3B:FB:44:8E:5E:20:C4:7F:3F:B3:5A:D6:9D
            X509v3 Authority Key Identifier: 
                keyid:7B:99:DE:B3:3D:A2:5C:B9:D9:DB:F2:4F:8B:93:47:69:AB:B7:F0:2F

    Signature Algorithm: sha1WithRSAEncryption
         8d:0a:5c:54:ee:80:00:0c:c7:a8:9e:b3:ad:78:4b:82:83:42:
         f2:a6:84:3e:e2:d5:82:6c:ea:a8:5b:8e:26:0f:e5:f6:6a:d2:
         11:62:7f:40:fb:7b:4d:0c:b1:64:68:97:a0:5f:75:84:cf:37:
         0a:4f:e2:1c:ac:ca:73:f0:9b:d4:75:d8:0d:0a:99:64:11:3e:
         6f:5b:e9:26:2c:7c:99:fe:f4:ad:e9:10:ce:34:67:eb:f2:27:
         05:b3:19:b4:f7:6b:11:65:52:37:34:9c:de:d2:23:98:14:df:
         bd:c7:13:8d:5a:80:ee:e3:6a:bd:ec:77:ae:10:ca:54:ad:8d:
         cb:20:22:0f:ad:b5:ce:47:7e:36:0e:7f:f5:c8:9d:19:f6:94:
         54:dd:d7:37:da:de:c6:81:64:3b:24:db:6c:6b:51:0a:41:ae:
         d0:da:35:39:a6:bb:ba:7f:ba:72:94:c8:c5:a2:ac:8a:4e:00:
         fc:87:b1:83:ef:63:7b:e9:97:d3:1f:4e:f5:f6:4a:fc:78:5b:
         01:19:6c:77:ae:40:35:c5:fd:1e:97:48:c1:61:10:5c:8f:f0:
         ff:ed:46:1c:74:4f:a7:b6:65:c0:8e:c8:0f:32:82:37:3d:78:
         01:b7:c4:a1:1d:d1:34:f9:c0:5c:71:2d:03:90:71:19:02:78:
         f0:c3:f4:de
-----BEGIN CERTIFICATE-----
MIIDqDCCApCgAwIBAgIBAjANBgkqhkiG9w0BAQUFADBXMQswCQYDVQQGEwJDTjEQ
MA4GA1UECAwHQmVpamluZzEQMA4GA1UEBwwHQmVpamluZzEOMAwGA1UECgwFUXVu
YXIxFDASBgNVBAsMC3F1bmFyenouY29tMB4XDTE0MDQyMzExNTUwNVoXDTE1MDQy
MzExNTUwNVowWzELMAkGA1UEBhMCQ04xEDAOBgNVBAgMB0JlaWppbmcxDjAMBgNV
BAoMBVF1bmFyMRQwEgYDVQQLDAtxdW5hcnp6LmNvbTEUMBIGA1UEAwwLcXVuYXJ6
ei5jb20wggEiMA0GCSqGSIb3DQEBAQUAA4IBDwAwggEKAoIBAQDJIqVF5HQXa/Kf
C2+xK2H16USjLmtwsa1toJLARbxPrl4UWr8wdynmruY7EGMP6dDTMoT18CkFscZl
Q6qR3iAlngaZiGxgrLKt2PKUGonNG+I1hm1r9GIqI9NDT558Qz5v9oRDCIYiGNRI
Qp5mo2stWQ+H+UcpabHfynQCH2/QWnLRBI8FV1o0OL1Odweuq+PACP0NrM0Bt0St
BldYe+fwZeIttnf+nkq03RBi5Ep0EN6+9cygeHXAWL2UtVASrmLIMQejD4kcSSgW
zx7kHlnLtTOV7nfuTia9WpwEdMclQUc6+KR65DFmDUSbsGs3fvQNapYKt/bg98SC
M/gBmhxTAgMBAAGjezB5MAkGA1UdEwQCMAAwLAYJYIZIAYb4QgENBB8WHU9wZW5T
U0wgR2VuZXJhdGVkIENlcnRpZmljYXRlMB0GA1UdDgQWBBR6s73i/Y0cO/tEjl4g
xH8/s1rWnTAfBgNVHSMEGDAWgBR7md6zPaJcudnb8k+Lk0dpq7fwLzANBgkqhkiG
9w0BAQUFAAOCAQEAjQpcVO6AAAzHqJ6zrXhLgoNC8qaEPuLVgmzqqFuOJg/l9mrS
EWJ/QPt7TQyxZGiXoF91hM83Ck/iHKzKc/Cb1HXYDQqZZBE+b1vpJix8mf70rekQ
zjRn6/InBbMZtPdrEWVSNzSc3tIjmBTfvccTjVqA7uNqvex3rhDKVK2NyyAiD621
zkd+Ng5/9cidGfaUVN3XN9rexoFkOyTbbGtRCkGu0No1Oaa7un+6cpTIxaKsik4A
/Iexg+9je+mX0x9O9fZK/HhbARlsd65ANcX9HpdIwWEQXI/w/+1GHHRPp7ZlwI7I
DzKCNz14AbfEoR3RNPnAXHEtA5BxGQJ48MP03g==
-----END CERTIFICATE-----
